; Function Attrs: mustprogress nounwind uwtable
define internal fastcc noundef zeroext i1 @_ZN12_GLOBAL__N_112EmptyChecker14VisitWhileStmtEPN5clang9WhileStmtE(ptr noundef nonnull readonly align 8 captures(none) dereferenceable(16) %0, ptr noundef nonnull %1) unnamed_addr #0 align 2 {
  %3 = tail call noundef ptr @_ZN5clang9WhileStmt20getConditionVariableEv(ptr noundef nonnull align 8 dereferenceable(16) %1) #14
  %.not = icmp eq ptr %3, null
  br i1 %.not, label %4, label %23

4:                                                ; preds = %2
  %5 = getelementptr inbounds nuw i8, ptr %1, i64 16
  %6 = load i16, ptr %1, align 8
  %7 = lshr i16 %6, 8
  %.lobit.i.i = and i16 %7, 1
  %8 = zext nneg i16 %.lobit.i.i to i64
  %9 = getelementptr inbounds nuw ptr, ptr %5, i64 %8
  %10 = load ptr, ptr %9, align 8
  %.not9 = icmp eq ptr %10, null
  br i1 %.not9, label %23, label %11

11:                                               ; preds = %4
  %12 = load ptr, ptr %0, align 8
  %13 = tail call noundef zeroext i1 @_ZN5clang5arcmt5trans14hasSideEffectsEPNS_4ExprERNS_10ASTContextE(ptr noundef nonnull %10, ptr noundef nonnull align 8 dereferenceable(23096) %12) #14
  br i1 %13, label %23, label %14

14:                                               ; preds = %11
  %15 = load i16, ptr %1, align 8
  %16 = lshr i16 %15, 8
  %.lobit.i.i.i = and i16 %16, 1
  %17 = zext nneg i16 %.lobit.i.i.i to i64
  %18 = getelementptr inbounds nuw ptr, ptr %5, i64 %17
  %19 = getelementptr inbounds nuw i8, ptr %18, i64 8
  %20 = load ptr, ptr %19, align 8
  %.not10 = icmp eq ptr %20, null
  br i1 %.not10, label %23, label %21

21:                                               ; preds = %14
  %22 = tail call fastcc noundef zeroext i1 @_ZN5clang15StmtVisitorBaseISt11add_pointerN12_GLOBAL__N_112EmptyCheckerEbJEE5VisitEPNS_4StmtE(ptr noundef nonnull align 1 dereferenceable(1) %0, ptr noundef nonnull %20)
  br label %23

23:                                               ; preds = %14, %11, %4, %2, %21
  %.0 = phi i1 [ %22, %21 ], [ false, %2 ], [ false, %4 ], [ false, %11 ], [ false, %14 ]
  ret i1 %.0
}